target datalayout = "e-m:e-p270:32:32-p271:32:32-p272:64:64-i64:64-i128:128-f80:128-n8:16:32:64-S128"
target triple = "x86_64-pc-linux-gnu"

%"class.icu_77::UMutex" = type { [40 x i8], %"struct.std::atomic", ptr }
%"struct.std::atomic" = type { %"struct.std::__atomic_base" }
%"struct.std::__atomic_base" = type { ptr }
%"class.icu_77::Mutex" = type { ptr }
%"class.icu_77::FieldPositionOnlyHandler" = type <{ %"class.icu_77::FieldPositionHandler.base", [4 x i8], ptr, i8, i8, [6 x i8] }>
%"class.icu_77::FieldPositionHandler.base" = type <{ ptr, i32 }>

@_ZN6icu_77L15gFormatterMutexE = internal global %"class.icu_77::UMutex" zeroinitializer, align 8

; Function Attrs: mustprogress nounwind uwtable
define linkonce_odr void @_ZN6icu_775MutexD2Ev(ptr noundef nonnull align 8 dereferenceable(8) %0) unnamed_addr #0 comdat align 2 personality ptr @__gxx_personality_v0 {
  %2 = alloca ptr, align 8
  store ptr %0, ptr %2, align 8, !tbaa !70
  %3 = load ptr, ptr %2, align 8
  %4 = getelementptr inbounds nuw %"class.icu_77::Mutex", ptr %3, i32 0, i32 0
  %5 = load ptr, ptr %4, align 8, !tbaa !74
  invoke void @umtx_unlock_77(ptr noundef %5)
          to label %6 unwind label %7

6:                                                ; preds = %1
  ret void

7:                                                ; preds = %1
  %8 = landingpad { ptr, i32 }
          catch ptr null
  %9 = extractvalue { ptr, i32 } %8, 0
  call void @__clang_call_terminate(ptr %9) #14
  unreachable
}

; Function Attrs: mustprogress uwtable
define linkonce_odr void @_ZN6icu_775MutexC2EPNS_6UMutexE(ptr noundef nonnull align 8 dereferenceable(8) %0, ptr noundef %1) unnamed_addr #1 comdat align 2 {
  %3 = alloca ptr, align 8
  %4 = alloca ptr, align 8
  store ptr %0, ptr %3, align 8, !tbaa !70
  store ptr %1, ptr %4, align 8, !tbaa !72
  %5 = load ptr, ptr %3, align 8
  %6 = getelementptr inbounds nuw %"class.icu_77::Mutex", ptr %5, i32 0, i32 0
  %7 = load ptr, ptr %4, align 8, !tbaa !72
  store ptr %7, ptr %6, align 8, !tbaa !74
  %8 = getelementptr inbounds nuw %"class.icu_77::Mutex", ptr %5, i32 0, i32 0
  %9 = load ptr, ptr %8, align 8, !tbaa !74
  call void @umtx_lock_77(ptr noundef %9)
  ret void
}

; Function Attrs: mustprogress uwtable
define noundef nonnull align 8 dereferenceable(64) ptr @_ZNK6icu_7718DateIntervalFormat6formatERNS_8CalendarES2_RNS_13UnicodeStringERNS_13FieldPositionER10UErrorCode(ptr noundef nonnull align 8 dereferenceable(1596) %0, ptr noundef nonnull align 8 dereferenceable(192) %1, ptr noundef nonnull align 8 dereferenceable(192) %2, ptr noundef nonnull align 8 dereferenceable(64) %3, ptr noundef nonnull align 8 dereferenceable(20) %4, ptr noundef nonnull align 4 dereferenceable(4) %5) #1 align 2 personality ptr @__gxx_personality_v0 {
  %7 = alloca ptr, align 8
  %8 = alloca ptr, align 8
  %9 = alloca ptr, align 8
  %10 = alloca ptr, align 8
  %11 = alloca ptr, align 8
  %12 = alloca ptr, align 8
  %13 = alloca %"class.icu_77::FieldPositionOnlyHandler", align 8
  %14 = alloca ptr, align 8
  %15 = alloca i32, align 4
  %16 = alloca i8, align 1
  %17 = alloca %"class.icu_77::Mutex", align 8
  store ptr %0, ptr %7, align 8, !tbaa !39
  store ptr %1, ptr %8, align 8, !tbaa !109
  store ptr %2, ptr %9, align 8, !tbaa !109
  store ptr %3, ptr %10, align 8, !tbaa !41
  store ptr %4, ptr %11, align 8, !tbaa !85
  store ptr %5, ptr %12, align 8, !tbaa !22
  %18 = load ptr, ptr %7, align 8
  call void @llvm.lifetime.start.p0(i64 32, ptr %13) #12
  %19 = load ptr, ptr %11, align 8, !tbaa !85
  call void @_ZN6icu_7724FieldPositionOnlyHandlerC1ERNS_13FieldPositionE(ptr noundef nonnull align 8 dereferenceable(26) %13, ptr noundef nonnull align 8 dereferenceable(20) %19)
  invoke void @_ZN6icu_7724FieldPositionOnlyHandler18setAcceptFirstOnlyEa(ptr noundef nonnull align 8 dereferenceable(26) %13, i8 noundef signext 1)
          to label %20 unwind label %28

20:                                               ; preds = %6
  call void @llvm.lifetime.start.p0(i64 1, ptr %16) #12
  call void @llvm.lifetime.start.p0(i64 8, ptr %17) #12
  invoke void @_ZN6icu_775MutexC2EPNS_6UMutexE(ptr noundef nonnull align 8 dereferenceable(8) %17, ptr noundef @_ZN6icu_77L15gFormatterMutexE)
          to label %21 unwind label %32

21:                                               ; preds = %20
  %22 = load ptr, ptr %8, align 8, !tbaa !109
  %23 = load ptr, ptr %9, align 8, !tbaa !109
  %24 = load ptr, ptr %10, align 8, !tbaa !41
  %25 = load ptr, ptr %12, align 8, !tbaa !22
  %26 = invoke noundef nonnull align 8 dereferenceable(64) ptr @_ZNK6icu_7718DateIntervalFormat10formatImplERNS_8CalendarES2_RNS_13UnicodeStringERaRNS_20FieldPositionHandlerER10UErrorCode(ptr noundef nonnull align 8 dereferenceable(1596) %18, ptr noundef nonnull align 8 dereferenceable(192) %22, ptr noundef nonnull align 8 dereferenceable(192) %23, ptr noundef nonnull align 8 dereferenceable(64) %24, ptr noundef nonnull align 1 dereferenceable(1) %16, ptr noundef nonnull align 8 dereferenceable(12) %13, ptr noundef nonnull align 4 dereferenceable(4) %25)
          to label %27 unwind label %36

27:                                               ; preds = %21
  call void @_ZN6icu_775MutexD2Ev(ptr noundef nonnull align 8 dereferenceable(8) %17) #12
  call void @llvm.lifetime.end.p0(i64 8, ptr %17) #12
  call void @llvm.lifetime.end.p0(i64 1, ptr %16) #12
  call void @_ZN6icu_7724FieldPositionOnlyHandlerD1Ev(ptr noundef nonnull align 8 dereferenceable(26) %13) #12
  call void @llvm.lifetime.end.p0(i64 32, ptr %13) #12
  ret ptr %26

28:                                               ; preds = %6
  %29 = landingpad { ptr, i32 }
          cleanup
  %30 = extractvalue { ptr, i32 } %29, 0
  store ptr %30, ptr %14, align 8
  %31 = extractvalue { ptr, i32 } %29, 1
  store i32 %31, ptr %15, align 4
  br label %41

32:                                               ; preds = %20
  %33 = landingpad { ptr, i32 }
          cleanup
  %34 = extractvalue { ptr, i32 } %33, 0
  store ptr %34, ptr %14, align 8
  %35 = extractvalue { ptr, i32 } %33, 1
  store i32 %35, ptr %15, align 4
  br label %40

36:                                               ; preds = %21
  %37 = landingpad { ptr, i32 }
          cleanup
  %38 = extractvalue { ptr, i32 } %37, 0
  store ptr %38, ptr %14, align 8
  %39 = extractvalue { ptr, i32 } %37, 1
  store i32 %39, ptr %15, align 4
  call void @_ZN6icu_775MutexD2Ev(ptr noundef nonnull align 8 dereferenceable(8) %17) #12
  br label %40

40:                                               ; preds = %36, %32
  call void @llvm.lifetime.end.p0(i64 8, ptr %17) #12
  call void @llvm.lifetime.end.p0(i64 1, ptr %16) #12
  br label %41

41:                                               ; preds = %40, %28
  call void @_ZN6icu_7724FieldPositionOnlyHandlerD1Ev(ptr noundef nonnull align 8 dereferenceable(26) %13) #12
  call void @llvm.lifetime.end.p0(i64 32, ptr %13) #12
  br label %42

42:                                               ; preds = %41
  %43 = load ptr, ptr %14, align 8
  %44 = load i32, ptr %15, align 4
  %45 = insertvalue { ptr, i32 } poison, ptr %43, 0
  %46 = insertvalue { ptr, i32 } %45, i32 %44, 1
  resume { ptr, i32 } %46
}