; Function Attrs: mustprogress uwtable
define noundef nonnull align 8 dereferenceable(64) ptr @_ZNK6icu_7718DateIntervalFormat6formatERNS_8CalendarES2_RNS_13UnicodeStringERNS_13FieldPositionER10UErrorCode(ptr noundef nonnull align 8 dereferenceable(1596) %0, ptr noundef nonnull align 8 dereferenceable(192) %1, ptr noundef nonnull align 8 dereferenceable(192) %2, ptr noundef nonnull align 8 dereferenceable(64) %3, ptr noundef nonnull align 8 dereferenceable(20) %4, ptr noundef nonnull align 4 dereferenceable(4) %5) local_unnamed_addr #1 align 2 personality ptr @__gxx_personality_v0 {
  %7 = alloca %"class.icu_77::FieldPositionOnlyHandler", align 8
  %8 = alloca i8, align 1
  call void @llvm.lifetime.start.p0(i64 32, ptr nonnull %7) #19
  call void @_ZN6icu_7724FieldPositionOnlyHandlerC1ERNS_13FieldPositionE(ptr noundef nonnull align 8 dereferenceable(26) %7, ptr noundef nonnull align 8 dereferenceable(20) %4)
  invoke void @_ZN6icu_7724FieldPositionOnlyHandler18setAcceptFirstOnlyEa(ptr noundef nonnull align 8 dereferenceable(26) %7, i8 noundef signext 1)
          to label %9 unwind label %15

9:                                                ; preds = %6
  call void @llvm.lifetime.start.p0(i64 1, ptr nonnull %8) #19
  invoke void @umtx_lock_77(ptr noundef nonnull @_ZN6icu_77L15gFormatterMutexE)
          to label %_ZN6icu_775MutexC2EPNS_6UMutexE.exit unwind label %17

_ZN6icu_775MutexC2EPNS_6UMutexE.exit:             ; preds = %9
  %10 = invoke noundef nonnull align 8 dereferenceable(64) ptr @_ZNK6icu_7718DateIntervalFormat10formatImplERNS_8CalendarES2_RNS_13UnicodeStringERaRNS_20FieldPositionHandlerER10UErrorCode(ptr noundef nonnull align 8 dereferenceable(1596) %0, ptr noundef nonnull align 8 dereferenceable(192) %1, ptr noundef nonnull align 8 dereferenceable(192) %2, ptr noundef nonnull align 8 dereferenceable(64) %3, ptr noundef nonnull align 1 dereferenceable(1) %8, ptr noundef nonnull align 8 dereferenceable(12) %7, ptr noundef nonnull align 4 dereferenceable(4) %5)
          to label %11 unwind label %19

11:                                               ; preds = %_ZN6icu_775MutexC2EPNS_6UMutexE.exit
  invoke void @umtx_unlock_77(ptr noundef nonnull @_ZN6icu_77L15gFormatterMutexE)
          to label %_ZN6icu_775MutexD2Ev.exit unwind label %12

12:                                               ; preds = %11
  %13 = landingpad { ptr, i32 }
          catch ptr null
  %14 = extractvalue { ptr, i32 } %13, 0
  call void @__clang_call_terminate(ptr %14) #21
  unreachable

_ZN6icu_775MutexD2Ev.exit:                        ; preds = %11
  call void @llvm.lifetime.end.p0(i64 1, ptr nonnull %8) #19
  call void @_ZN6icu_7724FieldPositionOnlyHandlerD1Ev(ptr noundef nonnull align 8 dereferenceable(26) %7) #19
  call void @llvm.lifetime.end.p0(i64 32, ptr nonnull %7) #19
  ret ptr %10

15:                                               ; preds = %6
  %16 = landingpad { ptr, i32 }
          cleanup
  br label %24

17:                                               ; preds = %9
  %18 = landingpad { ptr, i32 }
          cleanup
  br label %_ZN6icu_775MutexD2Ev.exit11

19:                                               ; preds = %_ZN6icu_775MutexC2EPNS_6UMutexE.exit
  %20 = landingpad { ptr, i32 }
          cleanup
  invoke void @umtx_unlock_77(ptr noundef nonnull @_ZN6icu_77L15gFormatterMutexE)
          to label %_ZN6icu_775MutexD2Ev.exit11 unwind label %21

21:                                               ; preds = %19
  %22 = landingpad { ptr, i32 }
          catch ptr null
  %23 = extractvalue { ptr, i32 } %22, 0
  call void @__clang_call_terminate(ptr %23) #21
  unreachable

_ZN6icu_775MutexD2Ev.exit11:                      ; preds = %19, %17
  %.pn = phi { ptr, i32 } [ %18, %17 ], [ %20, %19 ]
  call void @llvm.lifetime.end.p0(i64 1, ptr nonnull %8) #19
  br label %24

24:                                               ; preds = %_ZN6icu_775MutexD2Ev.exit11, %15
  %.pn.pn = phi { ptr, i32 } [ %.pn, %_ZN6icu_775MutexD2Ev.exit11 ], [ %16, %15 ]
  call void @_ZN6icu_7724FieldPositionOnlyHandlerD1Ev(ptr noundef nonnull align 8 dereferenceable(26) %7) #19
  call void @llvm.lifetime.end.p0(i64 32, ptr nonnull %7) #19
  resume { ptr, i32 } %.pn.pn
}